; ModuleID = '22/920.c'
source_filename = "22/920.c"
target datalayout = "e-m:e-p270:32:32-p271:32:32-p272:64:64-i64:64-f80:128-n8:16:32:64-S128"
target triple = "x86_64-pc-linux-gnu"

@.str = private unnamed_addr constant [3 x i8] c"%s\00", align 1
@.str.1 = private unnamed_addr constant [3 x i8] c"No\00", align 1
@.str.2 = private unnamed_addr constant [3 x i8] c"%d\00", align 1

; Function Attrs: noinline nounwind uwtable
define dso_local i32 @main() #0 {
  %1 = alloca i32, align 4
  %2 = alloca [1500 x i8], align 16
  %3 = alloca [4 x i8], align 1
  %4 = alloca [300 x i32], align 16
  %5 = alloca i32, align 4
  %6 = alloca i32, align 4
  %7 = alloca i32, align 4
  %8 = alloca i32, align 4
  %9 = alloca i32, align 4
  %10 = alloca i32, align 4
  %11 = alloca i32, align 4
  store i32 0, i32* %1, align 4
  store i32 0, i32* %5, align 4
  store i32 0, i32* %6, align 4
  store i32 1, i32* %7, align 4
  store i32 0, i32* %8, align 4
  store i32 0, i32* %9, align 4
  %12 = getelementptr inbounds [1500 x i8], [1500 x i8]* %2, i64 0, i64 0
  %13 = call i32 (i8*, ...) @__isoc99_scanf(i8* getelementptr inbounds ([3 x i8], [3 x i8]* @.str, i64 0, i64 0), i8* %12)
  br label %14

14:                                               ; preds = %67, %0
  %15 = load i32, i32* %5, align 4
  %16 = sext i32 %15 to i64
  %17 = getelementptr inbounds [1500 x i8], [1500 x i8]* %2, i64 0, i64 %16
  %18 = load i8, i8* %17, align 1
  %19 = sext i8 %18 to i32
  %20 = icmp ne i32 %19, 44
  br i1 %20, label %21, label %38

21:                                               ; preds = %14
  %22 = load i32, i32* %5, align 4
  %23 = sext i32 %22 to i64
  %24 = getelementptr inbounds [1500 x i8], [1500 x i8]* %2, i64 0, i64 %23
  %25 = load i8, i8* %24, align 1
  %26 = sext i8 %25 to i32
  %27 = icmp ne i32 %26, 0
  br i1 %27, label %28, label %38

28:                                               ; preds = %21
  %29 = load i32, i32* %5, align 4
  %30 = sext i32 %29 to i64
  %31 = getelementptr inbounds [1500 x i8], [1500 x i8]* %2, i64 0, i64 %30
  %32 = load i8, i8* %31, align 1
  %33 = load i32, i32* %6, align 4
  %34 = sext i32 %33 to i64
  %35 = getelementptr inbounds [4 x i8], [4 x i8]* %3, i64 0, i64 %34
  store i8 %32, i8* %35, align 1
  %36 = load i32, i32* %6, align 4
  %37 = add nsw i32 %36, 1
  store i32 %37, i32* %6, align 4
  br label %64

38:                                               ; preds = %21, %14
  br label %39

39:                                               ; preds = %42, %38
  %40 = load i32, i32* %6, align 4
  %41 = icmp sgt i32 %40, 0
  br i1 %41, label %42, label %57

42:                                               ; preds = %39
  %43 = load i32, i32* %6, align 4
  %44 = add nsw i32 %43, -1
  store i32 %44, i32* %6, align 4
  %45 = load i32, i32* %6, align 4
  %46 = sext i32 %45 to i64
  %47 = getelementptr inbounds [4 x i8], [4 x i8]* %3, i64 0, i64 %46
  %48 = load i8, i8* %47, align 1
  %49 = sext i8 %48 to i32
  %50 = sub nsw i32 %49, 48
  %51 = load i32, i32* %7, align 4
  %52 = mul nsw i32 %50, %51
  %53 = load i32, i32* %8, align 4
  %54 = add nsw i32 %53, %52
  store i32 %54, i32* %8, align 4
  %55 = load i32, i32* %7, align 4
  %56 = mul nsw i32 %55, 10
  store i32 %56, i32* %7, align 4
  br label %39

57:                                               ; preds = %39
  %58 = load i32, i32* %8, align 4
  %59 = load i32, i32* %9, align 4
  %60 = sext i32 %59 to i64
  %61 = getelementptr inbounds [300 x i32], [300 x i32]* %4, i64 0, i64 %60
  store i32 %58, i32* %61, align 4
  %62 = load i32, i32* %9, align 4
  %63 = add nsw i32 %62, 1
  store i32 %63, i32* %9, align 4
  store i32 0, i32* %8, align 4
  store i32 0, i32* %6, align 4
  store i32 1, i32* %7, align 4
  br label %64

64:                                               ; preds = %57, %28
  %65 = load i32, i32* %5, align 4
  %66 = add nsw i32 %65, 1
  store i32 %66, i32* %5, align 4
  br label %67

67:                                               ; preds = %64
  %68 = load i32, i32* %5, align 4
  %69 = sub nsw i32 %68, 1
  %70 = sext i32 %69 to i64
  %71 = getelementptr inbounds [1500 x i8], [1500 x i8]* %2, i64 0, i64 %70
  %72 = load i8, i8* %71, align 1
  %73 = sext i8 %72 to i32
  %74 = icmp ne i32 %73, 0
  br i1 %74, label %14, label %75

75:                                               ; preds = %67
  store i32 -1, i32* %11, align 4
  store i32 -1, i32* %10, align 4
  %76 = load i32, i32* %9, align 4
  store i32 %76, i32* %8, align 4
  br label %77

77:                                               ; preds = %94, %75
  %78 = load i32, i32* %9, align 4
  %79 = icmp sgt i32 %78, 0
  br i1 %79, label %80, label %95

80:                                               ; preds = %77
  %81 = load i32, i32* %9, align 4
  %82 = add nsw i32 %81, -1
  store i32 %82, i32* %9, align 4
  %83 = load i32, i32* %10, align 4
  %84 = load i32, i32* %9, align 4
  %85 = sext i32 %84 to i64
  %86 = getelementptr inbounds [300 x i32], [300 x i32]* %4, i64 0, i64 %85
  %87 = load i32, i32* %86, align 4
  %88 = icmp slt i32 %83, %87
  br i1 %88, label %89, label %94

89:                                               ; preds = %80
  %90 = load i32, i32* %9, align 4
  %91 = sext i32 %90 to i64
  %92 = getelementptr inbounds [300 x i32], [300 x i32]* %4, i64 0, i64 %91
  %93 = load i32, i32* %92, align 4
  store i32 %93, i32* %10, align 4
  br label %94

94:                                               ; preds = %89, %80
  br label %77

95:                                               ; preds = %77
  br label %96

96:                                               ; preds = %123, %108, %95
  %97 = load i32, i32* %8, align 4
  %98 = icmp sgt i32 %97, 0
  br i1 %98, label %99, label %125

99:                                               ; preds = %96
  %100 = load i32, i32* %8, align 4
  %101 = add nsw i32 %100, -1
  store i32 %101, i32* %8, align 4
  %102 = load i32, i32* %8, align 4
  %103 = sext i32 %102 to i64
  %104 = getelementptr inbounds [300 x i32], [300 x i32]* %4, i64 0, i64 %103
  %105 = load i32, i32* %104, align 4
  %106 = load i32, i32* %10, align 4
  %107 = icmp eq i32 %105, %106
  br i1 %107, label %108, label %109

108:                                              ; preds = %99
  br label %96

109:                                              ; preds = %99
  %110 = load i32, i32* %11, align 4
  %111 = load i32, i32* %8, align 4
  %112 = sext i32 %111 to i64
  %113 = getelementptr inbounds [300 x i32], [300 x i32]* %4, i64 0, i64 %112
  %114 = load i32, i32* %113, align 4
  %115 = icmp slt i32 %110, %114
  br i1 %115, label %116, label %121

116:                                              ; preds = %109
  %117 = load i32, i32* %8, align 4
  %118 = sext i32 %117 to i64
  %119 = getelementptr inbounds [300 x i32], [300 x i32]* %4, i64 0, i64 %118
  %120 = load i32, i32* %119, align 4
  br label %123

121:                                              ; preds = %109
  %122 = load i32, i32* %11, align 4
  br label %123

123:                                              ; preds = %121, %116
  %124 = phi i32 [ %120, %116 ], [ %122, %121 ]
  store i32 %124, i32* %11, align 4
  br label %96

125:                                              ; preds = %96
  %126 = load i32, i32* %11, align 4
  %127 = icmp eq i32 %126, -1
  br i1 %127, label %128, label %130

128:                                              ; preds = %125
  %129 = call i32 (i8*, ...) @printf(i8* getelementptr inbounds ([3 x i8], [3 x i8]* @.str.1, i64 0, i64 0))
  br label %133

130:                                              ; preds = %125
  %131 = load i32, i32* %11, align 4
  %132 = call i32 (i8*, ...) @printf(i8* getelementptr inbounds ([3 x i8], [3 x i8]* @.str.2, i64 0, i64 0), i32 %131)
  br label %133

133:                                              ; preds = %130, %128
  %134 = load i32, i32* %1, align 4
  ret i32 %134
}

declare dso_local i32 @__isoc99_scanf(i8*, ...) #1

declare dso_local i32 @printf(i8*, ...) #1


!llvm.module.flags = !{!0}
!llvm.ident = !{!1}

!0 = !{i32 1, !"wchar_size", i32 4}
!1 = !{!"clang version 10.0.0-4ubuntu1 "}
